target datalayout = "e-m:e-p270:32:32-p271:32:32-p272:64:64-i64:64-i128:128-f80:128-n8:16:32:64-S128"
target triple = "x86_64-pc-linux-gnu"

%struct.ole2_list = type { i32, ptr }
%struct.ole2_list_node = type { i32, ptr }

@.str = private unnamed_addr constant [49 x i8] c"OLE2: could not allocate new node for worklist!\0A\00", align 1

; Function Attrs: nounwind uwtable
define i32 @ole2_list_push(ptr noundef %0, i32 noundef %1) #0 {
  %3 = alloca ptr, align 8
  %4 = alloca i32, align 4
  %5 = alloca ptr, align 8
  %6 = alloca i32, align 4
  store ptr %0, ptr %3, align 8
  store i32 %1, ptr %4, align 4
  store ptr null, ptr %5, align 8
  store i32 20, ptr %6, align 4
  br label %7

7:                                                ; preds = %2
  %8 = call noalias ptr @malloc(i64 noundef 16) #9
  store ptr %8, ptr %5, align 8
  %9 = load ptr, ptr %5, align 8
  %10 = icmp eq ptr null, %9
  br i1 %10, label %11, label %14

11:                                               ; preds = %7
  br label %12

12:                                               ; preds = %11
  call void (ptr, ...) @cli_dbgmsg(ptr noundef @.str)
  br label %13

13:                                               ; preds = %12
  br label %31

14:                                               ; preds = %7
  br label %15

15:                                               ; preds = %14
  %16 = load i32, ptr %4, align 4
  %17 = load ptr, ptr %5, align 8
  %18 = getelementptr inbounds %struct.ole2_list_node, ptr %17, i32 0, i32 0
  store i32 %16, ptr %18, align 8
  %19 = load ptr, ptr %3, align 8
  %20 = getelementptr inbounds %struct.ole2_list, ptr %19, i32 0, i32 1
  %21 = load ptr, ptr %20, align 8
  %22 = load ptr, ptr %5, align 8
  %23 = getelementptr inbounds %struct.ole2_list_node, ptr %22, i32 0, i32 1
  store ptr %21, ptr %23, align 8
  %24 = load ptr, ptr %5, align 8
  %25 = load ptr, ptr %3, align 8
  %26 = getelementptr inbounds %struct.ole2_list, ptr %25, i32 0, i32 1
  store ptr %24, ptr %26, align 8
  %27 = load ptr, ptr %3, align 8
  %28 = getelementptr inbounds %struct.ole2_list, ptr %27, i32 0, i32 0
  %29 = load i32, ptr %28, align 8
  %30 = add i32 %29, 1
  store i32 %30, ptr %28, align 8
  store i32 0, ptr %6, align 4
  br label %31

31:                                               ; preds = %15, %13
  %32 = load i32, ptr %6, align 4
  ret i32 %32
}