; Function Attrs: nounwind uwtable
define noundef i32 @ole2_list_push(ptr nocapture noundef %0, i32 noundef %1) local_unnamed_addr #2 {
  %3 = tail call noalias dereferenceable_or_null(16) ptr @malloc(i64 noundef 16) #20
  %4 = icmp eq ptr %3, null
  br i1 %4, label %5, label %6

5:                                                ; preds = %2
  tail call void (ptr, ...) @cli_dbgmsg(ptr noundef nonnull @.str) #21
  br label %12

6:                                                ; preds = %2
  store i32 %1, ptr %3, align 8
  %7 = getelementptr inbounds i8, ptr %0, i64 8
  %8 = load ptr, ptr %7, align 8
  %9 = getelementptr inbounds i8, ptr %3, i64 8
  store ptr %8, ptr %9, align 8
  store ptr %3, ptr %7, align 8
  %10 = load i32, ptr %0, align 8
  %11 = add i32 %10, 1
  store i32 %11, ptr %0, align 8
  br label %12

12:                                               ; preds = %6, %5
  %.0 = phi i32 [ 20, %5 ], [ 0, %6 ]
  ret i32 %.0
}